target datalayout = "e-m:e-p270:32:32-p271:32:32-p272:64:64-i64:64-i128:128-f80:128-n8:16:32:64-S128"
target triple = "x86_64-unknown-linux-gnu"

%"class.google::protobuf::internal::EpsCopyInputStream" = type { ptr, ptr, ptr, i32, i32, ptr, [32 x i8], i64, i32, i32 }

; Function Attrs: mustprogress uwtable
define noundef ptr @_ZN6google8protobuf8internal18EpsCopyInputStream8InitFromEPNS0_2io19ZeroCopyInputStreamE(ptr noundef nonnull align 8 dereferenceable(88) %this, ptr noundef %zcis) #4 align 2 {
entry:
  %retval = alloca ptr, align 8
  %this.addr = alloca ptr, align 8
  %zcis.addr = alloca ptr, align 8
  %data = alloca ptr, align 8
  %size = alloca i32, align 4
  %ptr = alloca ptr, align 8
  %ptr18 = alloca ptr, align 8
  store ptr %this, ptr %this.addr, align 8
  store ptr %zcis, ptr %zcis.addr, align 8
  %this1 = load ptr, ptr %this.addr, align 8
  %0 = load ptr, ptr %zcis.addr, align 8
  %zcis_ = getelementptr inbounds %"class.google::protobuf::internal::EpsCopyInputStream", ptr %this1, i32 0, i32 5
  store ptr %0, ptr %zcis_, align 8
  %limit_ = getelementptr inbounds %"class.google::protobuf::internal::EpsCopyInputStream", ptr %this1, i32 0, i32 4
  store i32 2147483647, ptr %limit_, align 4
  %1 = load ptr, ptr %zcis.addr, align 8
  %vtable = load ptr, ptr %1, align 8
  %vfn = getelementptr inbounds ptr, ptr %vtable, i64 2
  %2 = load ptr, ptr %vfn, align 8
  %call = call noundef zeroext i1 %2(ptr noundef nonnull align 8 dereferenceable(8) %1, ptr noundef %data, ptr noundef %size)
  br i1 %call, label %if.then, label %if.end24

if.then:                                          ; preds = %entry
  %3 = load i32, ptr %size, align 4
  %overall_limit_ = getelementptr inbounds %"class.google::protobuf::internal::EpsCopyInputStream", ptr %this1, i32 0, i32 9
  %4 = load i32, ptr %overall_limit_, align 4
  %sub = sub nsw i32 %4, %3
  store i32 %sub, ptr %overall_limit_, align 4
  %5 = load i32, ptr %size, align 4
  %cmp = icmp sgt i32 %5, 16
  br i1 %cmp, label %if.then2, label %if.else

if.then2:                                         ; preds = %if.then
  %6 = load ptr, ptr %data, align 8
  store ptr %6, ptr %ptr, align 8
  %7 = load i32, ptr %size, align 4
  %sub3 = sub nsw i32 %7, 16
  %limit_4 = getelementptr inbounds %"class.google::protobuf::internal::EpsCopyInputStream", ptr %this1, i32 0, i32 4
  %8 = load i32, ptr %limit_4, align 4
  %sub5 = sub nsw i32 %8, %sub3
  store i32 %sub5, ptr %limit_4, align 4
  %9 = load ptr, ptr %ptr, align 8
  %10 = load i32, ptr %size, align 4
  %idx.ext = sext i32 %10 to i64
  %add.ptr = getelementptr inbounds i8, ptr %9, i64 %idx.ext
  %add.ptr6 = getelementptr inbounds i8, ptr %add.ptr, i64 -16
  %buffer_end_ = getelementptr inbounds %"class.google::protobuf::internal::EpsCopyInputStream", ptr %this1, i32 0, i32 1
  store ptr %add.ptr6, ptr %buffer_end_, align 8
  %limit_end_ = getelementptr inbounds %"class.google::protobuf::internal::EpsCopyInputStream", ptr %this1, i32 0, i32 0
  store ptr %add.ptr6, ptr %limit_end_, align 8
  %patch_buffer_ = getelementptr inbounds %"class.google::protobuf::internal::EpsCopyInputStream", ptr %this1, i32 0, i32 6
  %arraydecay = getelementptr inbounds [32 x i8], ptr %patch_buffer_, i64 0, i64 0
  %next_chunk_ = getelementptr inbounds %"class.google::protobuf::internal::EpsCopyInputStream", ptr %this1, i32 0, i32 2
  store ptr %arraydecay, ptr %next_chunk_, align 8
  %aliasing_ = getelementptr inbounds %"class.google::protobuf::internal::EpsCopyInputStream", ptr %this1, i32 0, i32 7
  %11 = load i64, ptr %aliasing_, align 8
  %cmp7 = icmp eq i64 %11, 1
  br i1 %cmp7, label %if.then8, label %if.end

if.then8:                                         ; preds = %if.then2
  %aliasing_9 = getelementptr inbounds %"class.google::protobuf::internal::EpsCopyInputStream", ptr %this1, i32 0, i32 7
  store i64 2, ptr %aliasing_9, align 8
  br label %if.end

if.end:                                           ; preds = %if.then8, %if.then2
  %12 = load ptr, ptr %ptr, align 8
  store ptr %12, ptr %retval, align 8
  br label %return

if.else:                                          ; preds = %if.then
  %patch_buffer_10 = getelementptr inbounds %"class.google::protobuf::internal::EpsCopyInputStream", ptr %this1, i32 0, i32 6
  %arraydecay11 = getelementptr inbounds [32 x i8], ptr %patch_buffer_10, i64 0, i64 0
  %add.ptr12 = getelementptr inbounds i8, ptr %arraydecay11, i64 16
  %buffer_end_13 = getelementptr inbounds %"class.google::protobuf::internal::EpsCopyInputStream", ptr %this1, i32 0, i32 1
  store ptr %add.ptr12, ptr %buffer_end_13, align 8
  %limit_end_14 = getelementptr inbounds %"class.google::protobuf::internal::EpsCopyInputStream", ptr %this1, i32 0, i32 0
  store ptr %add.ptr12, ptr %limit_end_14, align 8
  %patch_buffer_15 = getelementptr inbounds %"class.google::protobuf::internal::EpsCopyInputStream", ptr %this1, i32 0, i32 6
  %arraydecay16 = getelementptr inbounds [32 x i8], ptr %patch_buffer_15, i64 0, i64 0
  %next_chunk_17 = getelementptr inbounds %"class.google::protobuf::internal::EpsCopyInputStream", ptr %this1, i32 0, i32 2
  store ptr %arraydecay16, ptr %next_chunk_17, align 8
  %patch_buffer_19 = getelementptr inbounds %"class.google::protobuf::internal::EpsCopyInputStream", ptr %this1, i32 0, i32 6
  %arraydecay20 = getelementptr inbounds [32 x i8], ptr %patch_buffer_19, i64 0, i64 0
  %add.ptr21 = getelementptr inbounds i8, ptr %arraydecay20, i64 32
  %13 = load i32, ptr %size, align 4
  %idx.ext22 = sext i32 %13 to i64
  %idx.neg = sub i64 0, %idx.ext22
  %add.ptr23 = getelementptr inbounds i8, ptr %add.ptr21, i64 %idx.neg
  store ptr %add.ptr23, ptr %ptr18, align 8
  %14 = load ptr, ptr %ptr18, align 8
  %15 = load ptr, ptr %data, align 8
  %16 = load i32, ptr %size, align 4
  %conv = sext i32 %16 to i64
  call void @llvm.memcpy.p0.p0.i64(ptr align 1 %14, ptr align 1 %15, i64 %conv, i1 false)
  %17 = load ptr, ptr %ptr18, align 8
  store ptr %17, ptr %retval, align 8
  br label %return

if.end24:                                         ; preds = %entry
  %overall_limit_25 = getelementptr inbounds %"class.google::protobuf::internal::EpsCopyInputStream", ptr %this1, i32 0, i32 9
  store i32 0, ptr %overall_limit_25, align 4
  %next_chunk_26 = getelementptr inbounds %"class.google::protobuf::internal::EpsCopyInputStream", ptr %this1, i32 0, i32 2
  store ptr null, ptr %next_chunk_26, align 8
  %size_ = getelementptr inbounds %"class.google::protobuf::internal::EpsCopyInputStream", ptr %this1, i32 0, i32 3
  store i32 0, ptr %size_, align 8
  %patch_buffer_27 = getelementptr inbounds %"class.google::protobuf::internal::EpsCopyInputStream", ptr %this1, i32 0, i32 6
  %arraydecay28 = getelementptr inbounds [32 x i8], ptr %patch_buffer_27, i64 0, i64 0
  %buffer_end_29 = getelementptr inbounds %"class.google::protobuf::internal::EpsCopyInputStream", ptr %this1, i32 0, i32 1
  store ptr %arraydecay28, ptr %buffer_end_29, align 8
  %limit_end_30 = getelementptr inbounds %"class.google::protobuf::internal::EpsCopyInputStream", ptr %this1, i32 0, i32 0
  store ptr %arraydecay28, ptr %limit_end_30, align 8
  %patch_buffer_31 = getelementptr inbounds %"class.google::protobuf::internal::EpsCopyInputStream", ptr %this1, i32 0, i32 6
  %arraydecay32 = getelementptr inbounds [32 x i8], ptr %patch_buffer_31, i64 0, i64 0
  store ptr %arraydecay32, ptr %retval, align 8
  br label %return

return:                                           ; preds = %if.end24, %if.else, %if.end
  %18 = load ptr, ptr %retval, align 8
  ret ptr %18
}