; Function Attrs: mustprogress uwtable
define noundef ptr @_ZN6google8protobuf8internal18EpsCopyInputStream8InitFromEPNS0_2io19ZeroCopyInputStreamE(ptr noundef nonnull align 8 dereferenceable(88) initializes((28, 40)) %this, ptr noundef %zcis) local_unnamed_addr #4 align 2 {
entry:
  %data = alloca ptr, align 8
  %size = alloca i32, align 4
  %zcis_ = getelementptr inbounds nuw i8, ptr %this, i64 32
  store ptr %zcis, ptr %zcis_, align 8
  %limit_ = getelementptr inbounds nuw i8, ptr %this, i64 28
  store i32 2147483647, ptr %limit_, align 4
  %vtable = load ptr, ptr %zcis, align 8
  %vfn = getelementptr inbounds nuw i8, ptr %vtable, i64 16
  %0 = load ptr, ptr %vfn, align 8
  %call = call noundef zeroext i1 %0(ptr noundef nonnull align 8 dereferenceable(8) %zcis, ptr noundef nonnull %data, ptr noundef nonnull %size)
  br i1 %call, label %if.then, label %if.end24

if.then:                                          ; preds = %entry
  %1 = load i32, ptr %size, align 4
  %overall_limit_ = getelementptr inbounds nuw i8, ptr %this, i64 84
  %2 = load i32, ptr %overall_limit_, align 4
  %sub = sub nsw i32 %2, %1
  store i32 %sub, ptr %overall_limit_, align 4
  %cmp = icmp sgt i32 %1, 16
  br i1 %cmp, label %if.then2, label %if.else

if.then2:                                         ; preds = %if.then
  %3 = load ptr, ptr %data, align 8
  %4 = load i32, ptr %limit_, align 4
  %reass.sub = sub i32 %4, %1
  %sub5 = add i32 %reass.sub, 16
  store i32 %sub5, ptr %limit_, align 4
  %idx.ext = zext nneg i32 %1 to i64
  %add.ptr = getelementptr inbounds nuw i8, ptr %3, i64 %idx.ext
  %add.ptr6 = getelementptr inbounds i8, ptr %add.ptr, i64 -16
  %buffer_end_ = getelementptr inbounds nuw i8, ptr %this, i64 8
  store ptr %add.ptr6, ptr %buffer_end_, align 8
  store ptr %add.ptr6, ptr %this, align 8
  %patch_buffer_ = getelementptr inbounds nuw i8, ptr %this, i64 40
  %next_chunk_ = getelementptr inbounds nuw i8, ptr %this, i64 16
  store ptr %patch_buffer_, ptr %next_chunk_, align 8
  %aliasing_ = getelementptr inbounds nuw i8, ptr %this, i64 72
  %5 = load i64, ptr %aliasing_, align 8
  %cmp7 = icmp eq i64 %5, 1
  br i1 %cmp7, label %if.then8, label %return

if.then8:                                         ; preds = %if.then2
  store i64 2, ptr %aliasing_, align 8
  br label %return

if.else:                                          ; preds = %if.then
  %patch_buffer_10 = getelementptr inbounds nuw i8, ptr %this, i64 40
  %add.ptr12 = getelementptr inbounds nuw i8, ptr %this, i64 56
  %buffer_end_13 = getelementptr inbounds nuw i8, ptr %this, i64 8
  store ptr %add.ptr12, ptr %buffer_end_13, align 8
  store ptr %add.ptr12, ptr %this, align 8
  %next_chunk_17 = getelementptr inbounds nuw i8, ptr %this, i64 16
  store ptr %patch_buffer_10, ptr %next_chunk_17, align 8
  %add.ptr21 = getelementptr inbounds nuw i8, ptr %this, i64 72
  %idx.ext22 = sext i32 %1 to i64
  %idx.neg = sub nsw i64 0, %idx.ext22
  %add.ptr23 = getelementptr inbounds i8, ptr %add.ptr21, i64 %idx.neg
  %6 = load ptr, ptr %data, align 8
  call void @llvm.memcpy.p0.p0.i64(ptr nonnull align 1 %add.ptr23, ptr align 1 %6, i64 %idx.ext22, i1 false)
  br label %return

if.end24:                                         ; preds = %entry
  %overall_limit_25 = getelementptr inbounds nuw i8, ptr %this, i64 84
  store i32 0, ptr %overall_limit_25, align 4
  %next_chunk_26 = getelementptr inbounds nuw i8, ptr %this, i64 16
  store ptr null, ptr %next_chunk_26, align 8
  %size_ = getelementptr inbounds nuw i8, ptr %this, i64 24
  store i32 0, ptr %size_, align 8
  %patch_buffer_27 = getelementptr inbounds nuw i8, ptr %this, i64 40
  %buffer_end_29 = getelementptr inbounds nuw i8, ptr %this, i64 8
  store ptr %patch_buffer_27, ptr %buffer_end_29, align 8
  store ptr %patch_buffer_27, ptr %this, align 8
  br label %return

return:                                           ; preds = %if.then2, %if.then8, %if.end24, %if.else
  %retval.0 = phi ptr [ %add.ptr23, %if.else ], [ %patch_buffer_27, %if.end24 ], [ %3, %if.then8 ], [ %3, %if.then2 ]
  ret ptr %retval.0
}